target datalayout = "e-m:e-p270:32:32-p271:32:32-p272:64:64-i64:64-i128:128-f80:128-n8:16:32:64-S128"
target triple = "x86_64-pc-linux-gnu"

; Function Attrs: nounwind uwtable
define ptr @OCSP_cert_to_id(ptr noundef %0, ptr noundef %1, ptr noundef %2) #0 {
  %4 = alloca ptr, align 8
  %5 = alloca ptr, align 8
  %6 = alloca ptr, align 8
  %7 = alloca ptr, align 8
  %8 = alloca ptr, align 8
  %9 = alloca ptr, align 8
  store ptr %0, ptr %4, align 8, !tbaa !3
  store ptr %1, ptr %5, align 8, !tbaa !8
  store ptr %2, ptr %6, align 8, !tbaa !8
  call void @llvm.lifetime.start.p0(i64 8, ptr %7) #3
  call void @llvm.lifetime.start.p0(i64 8, ptr %8) #3
  call void @llvm.lifetime.start.p0(i64 8, ptr %9) #3
  %10 = load ptr, ptr %4, align 8, !tbaa !3
  %11 = icmp ne ptr %10, null
  br i1 %11, label %14, label %12

12:                                               ; preds = %3
  %13 = call ptr @EVP_sha1()
  store ptr %13, ptr %4, align 8, !tbaa !3
  br label %14

14:                                               ; preds = %12, %3
  %15 = load ptr, ptr %5, align 8, !tbaa !8
  %16 = icmp ne ptr %15, null
  br i1 %16, label %17, label %22

17:                                               ; preds = %14
  %18 = load ptr, ptr %5, align 8, !tbaa !8
  %19 = call ptr @X509_get_issuer_name(ptr noundef %18)
  store ptr %19, ptr %7, align 8, !tbaa !10
  %20 = load ptr, ptr %5, align 8, !tbaa !8
  %21 = call ptr @X509_get0_serialNumber(ptr noundef %20)
  store ptr %21, ptr %8, align 8, !tbaa !12
  br label %25

22:                                               ; preds = %14
  %23 = load ptr, ptr %6, align 8, !tbaa !8
  %24 = call ptr @X509_get_subject_name(ptr noundef %23)
  store ptr %24, ptr %7, align 8, !tbaa !10
  store ptr null, ptr %8, align 8, !tbaa !12
  br label %25

25:                                               ; preds = %22, %17
  %26 = load ptr, ptr %6, align 8, !tbaa !8
  %27 = call ptr @X509_get0_pubkey_bitstr(ptr noundef %26)
  store ptr %27, ptr %9, align 8, !tbaa !12
  %28 = load ptr, ptr %4, align 8, !tbaa !3
  %29 = load ptr, ptr %7, align 8, !tbaa !10
  %30 = load ptr, ptr %9, align 8, !tbaa !12
  %31 = load ptr, ptr %8, align 8, !tbaa !12
  %32 = call ptr @OCSP_cert_id_new(ptr noundef %28, ptr noundef %29, ptr noundef %30, ptr noundef %31)
  call void @llvm.lifetime.end.p0(i64 8, ptr %9) #3
  call void @llvm.lifetime.end.p0(i64 8, ptr %8) #3
  call void @llvm.lifetime.end.p0(i64 8, ptr %7) #3
  ret ptr %32
}