; Function Attrs: nounwind uwtable
define ptr @OCSP_cert_to_id(ptr noundef %0, ptr noundef %1, ptr noundef %2) local_unnamed_addr #0 {
  %.not = icmp eq ptr %0, null
  br i1 %.not, label %4, label %6

4:                                                ; preds = %3
  %5 = tail call ptr @EVP_sha1() #3
  br label %6

6:                                                ; preds = %4, %3
  %.0 = phi ptr [ %0, %3 ], [ %5, %4 ]
  %.not14 = icmp eq ptr %1, null
  br i1 %.not14, label %10, label %7

7:                                                ; preds = %6
  %8 = tail call ptr @X509_get_issuer_name(ptr noundef nonnull %1) #3
  %9 = tail call ptr @X509_get0_serialNumber(ptr noundef nonnull %1) #3
  br label %12

10:                                               ; preds = %6
  %11 = tail call ptr @X509_get_subject_name(ptr noundef %2) #3
  br label %12

12:                                               ; preds = %10, %7
  %.011 = phi ptr [ %8, %7 ], [ %11, %10 ]
  %.010 = phi ptr [ %9, %7 ], [ null, %10 ]
  %13 = tail call ptr @X509_get0_pubkey_bitstr(ptr noundef %2) #3
  %14 = tail call ptr @OCSP_cert_id_new(ptr noundef %.0, ptr noundef %.011, ptr noundef %13, ptr noundef %.010)
  ret ptr %14
}